(dp1
S'gamma_t'
p2
(lp3
(lp4
I0
aF0.97927301300000003
aF0.975665369
aF1.0497076970000001
aF1.0986555309999999
aF1.171607691
aF1.1611177290000001
aF1.249173968
aF1.1888997429999999
aF1.3305701809999999
aF1.3798503280000001
aF1.449245409
aF1.352643115
aF0.94999999999999996
aF0.987473033
aF0.77581051300000003
aF3.1597768550000001
aF0.98984338800000005
aF0.96115572900000001
aF1.528532478
aF1.568231489
aa(lp5
I0
aI0
aF1.1076541040000001
aF1.098650964
aF1.201264026
aF1.304886838
aF1.284462634
aF1.4190290409999999
aF1.3817707699999999
aF1.472607971
aF1.5209753340000001
aF1.7332800509999999
aF1.1756965829999999
aF0.99515704400000005
aF0.99342538800000002
aF0.96880846700000001
aF1.4718315799999999
aF0.990034831
aF0.96017419999999998
aF1.7491199959999999
aF1.822157123
aa(lp6
I0
aI0
aI0
aF0.90094953
aF0.90877247699999997
aF0.91149823100000005
aF0.92998293600000004
aF0.97921730200000001
aF0.96121803900000002
aF1.038675574
aF1.0461698230000001
aF1.0744553859999999
aF1.782924792
aF1
aF1
aF0.77545399599999998
aF3.2074569479999999
aF1.050971635
aF0.92601887999999999
aF1.1406712020000001
aF1.1455122129999999
aa(lp7
I0
aI0
aI0
aI0
aF1.0147301900000001
aF1.034832749
aF1.033283811
aF1.066665676
aF1.021150247
aF1.0921777960000001
aF1.1345320139999999
aF1.1686361940000001
aF1.902008495
aF1
aF1.069224728
aF1
aF1
aF1
aF0.90273665999999997
aF1.05603303
aF1.2371915579999999
aa(lp8
I0
aI0
aI0
aI0
aI0
aF1.0073927819999999
aF1.0052507740000001
aF1.008344412
aF1.0032695
aF1.025657518
aF1.050044169
aF1.0636941289999999
aF2.3082151909999999
aF1
aF1.197564208
aF0.60034096100000001
aF1
aF1
aF0.905829247
aF1.109973833
aF1.140905252
aa(lp9
I0
aI0
aI0
aI0
aI0
aI0
aF1.0014328240000001
aF1.0021436399999999
aF1.0007922010000001
aF1.0091570599999999
aF1.0212833779999999
aF1.0331801060000001
aF2.5092599450000002
aF1
aF1.1740550649999999
aF0.61551268199999998
aF1
aF1.2450394979999999
aF0.92615660200000005
aF1.0140964480000001
aF1.0764669179999999
aa(lp10
I0
aI0
aI0
aI0
aI0
aI0
aI0
aF1.002495889
aF1.0018357879999999
aF1.0060180540000001
aF1.00988576
aF1.0139454240000001
aF1.8953053929999999
aF1
aF1.161523504
aF1
aF1
aF1
aF0.93713084400000002
aF1.017817492
aF1.021624748
aa(lp11
I0
aI0
aI0
aI0
aI0
aI0
aI0
aI0
aF1.0000505369999999
aF1.0007612370000001
aF1.0024410509999999
aF1.016422347
aF2.0138591739999998
aF1
aF1.2061955950000001
aF0.44766601099999997
aF1
aF1
aF0.95906566199999999
aF1.1034217550000001
aF1.049035838
aa(lp12
I0
aI0
aI0
aI0
aI0
aI0
aI0
aI0
aI0
aF1.0012041739999999
aF1.003194615
aF1.0056474799999999
aF1.9963866690000001
aF1
aF1.199475627
aF1
aF1
aF1
aF0.98265152899999997
aF1.008191499
aF1.010825138
aa(lp13
I0
aI0
aI0
aI0
aI0
aI0
aI0
aI0
aI0
aI0
aF0.99976278600000001
aF1.0016339519999999
aF3.0211975459999998
aF1
aF1.233435828
aF0.56968133300000001
aF1
aF1
aF0.95607559600000003
aF1.0553695910000001
aF1.028939539
aa(lp14
I0
aI0
aI0
aI0
aI0
aI0
aI0
aI0
aI0
aI0
aI0
aF0.99879311100000001
aF3.1691430569999999
aF1
aF1.2562952190000001
aF1
aF1
aF1
aF1.013453092
aF1.0011500959999999
aF1.0022299379999999
aa(lp15
I0
aI0
aI0
aI0
aI0
aI0
aI0
aI0
aI0
aI0
aI0
aI0
aF2.1915552159999998
aF1
aF1.2767447789999999
aF0.66207246900000005
aF1
aF1
aF1
aF1.0002350440000001
aF1.007186267
aa(lp16
I0
aI0
aI0
aI0
aI0
aI0
aI0
aI0
aI0
aI0
aI0
aI0
aI0
aF1
aF1.3775046070000001
aF1
aF1
aF1
aF1
aF2.2343540399999999
aF3.786003724
aa(lp17
I0
aI0
aI0
aI0
aI0
aI0
aI0
aI0
aI0
aI0
aI0
aI0
aI0
aI0
aF1
aF0.96476793199999999
aF1
aF0.99043042299999995
aF1
aF1
aF1
aa(lp18
I0
aI0
aI0
aI0
aI0
aI0
aI0
aI0
aI0
aI0
aI0
aI0
aI0
aI0
aI0
aF1
aF1
aF0.95421574600000003
aF1.0227497480000001
aF1.2940705560000001
aF1.8035675870000001
aa(lp19
I0
aI0
aI0
aI0
aI0
aI0
aI0
aI0
aI0
aI0
aI0
aI0
aI0
aI0
aI0
aI0
aF1
aF1.0709418660000001
aF0.94058708300000005
aF1
aF0.74041640200000003
aa(lp20
I0
aI0
aI0
aI0
aI0
aI0
aI0
aI0
aI0
aI0
aI0
aI0
aI0
aI0
aI0
aI0
aI0
aF1
aF1
aF1
aF1
aa(lp21
I0
aI0
aI0
aI0
aI0
aI0
aI0
aI0
aI0
aI0
aI0
aI0
aI0
aI0
aI0
aI0
aI0
aI0
aF1
aF1
aF1
aa(lp22
I0
aI0
aI0
aI0
aI0
aI0
aI0
aI0
aI0
aI0
aI0
aI0
aI0
aI0
aI0
aI0
aI0
aI0
aI0
aF1.0865578259999999
aF1.1036934890000001
aa(lp23
I0
aI0
aI0
aI0
aI0
aI0
aI0
aI0
aI0
aI0
aI0
aI0
aI0
aI0
aI0
aI0
aI0
aI0
aI0
aI0
aF1.0001823919999999
aasS'gamma_v'
p24
(lp25
(lp26
I0
aF1.0139503110000001
aF1.0028065939999999
aF1.0066178670000001
aF1.038470657
aF1.045375122
aF1.054319053
aF1.124508039
aF1.343685343
aF1.052643846
aF1.1566559350000001
aF1.1165493719999999
aF1.0187025729999999
aF1
aF1.0061029269999999
aF1.5850183339999999
aF0.881405683
aF1.014678542
aF1.0401612069999999
aF1.1418953549999999
aF1.146089637
aa(lp27
I0
aI0
aF1.047578256
aF1.0423528909999999
aF1.0810254079999999
aF1.146949309
aF1.100576129
aF1.0788771660000001
aF1.154135439
aF1.1959521769999999
aF1.40455409
aF1.1860670250000001
aF0.97011535699999996
aF0.99708232799999996
aF1.008690943
aF1.094749685
aF0.93262986699999995
aF1.0022121820000001
aF1.256844157
aF1.1004059289999999
aF1
aa(lp28
I0
aI0
aI0
aF1.032876701
aF1.047596298
aF1.2224373239999999
aF1.081909003
aF1.068406078
aF1.1167931980000001
aF0.85134371099999995
aF1.1645859140000001
aF1.104043935
aF1.15279255
aF1
aF1
aF1.542328793
aF0.86414154899999995
aF1.029205465
aF1.0240858370000001
aF0.973386152
aF1.183394668
aa(lp29
I0
aI0
aI0
aI0
aF1.00303472
aF1.006179146
aF1.006616886
aF1.0260856549999999
aF1.0454392459999999
aF1.1697011020000001
aF1.0576660849999999
aF1.071917985
aF1.1060720399999999
aF1
aF1.2014178980000001
aF1
aF1
aF1
aF1.0309882770000001
aF1.1435347300000001
aF1.0983612810000001
aa(lp30
I0
aI0
aI0
aI0
aI0
aF1.0032641790000001
aF1.001156119
aF1.0199215129999999
aF0.99943211799999998
aF1.0578725659999999
aF1.0796480530000001
aF1.1027646120000001
aF1.07400611
aF1
aF1.1081436730000001
aF1.0117597629999999
aF1
aF1
aF1.0105939989999999
aF1.1997691340000001
aF1.053040574
aa(lp31
I0
aI0
aI0
aI0
aI0
aI0
aF1.0004144399999999
aF1.0181596500000001
aF1.002728262
aF1.0349952840000001
aF1.0191742269999999
aF1.046905515
aF1.232939523
aF1
aF1.084740904
aF1.2236387630000001
aF1
aF1.214638734
aF1.0333660410000001
aF1.0492191369999999
aF1.0278455289999999
aa(lp32
I0
aI0
aI0
aI0
aI0
aI0
aI0
aF1.002779804
aF1.002284197
aF1.010493989
aF1.021668316
aF1.0328070629999999
aF1.147595688
aF1
aF1.0872722319999999
aF1
aF1
aF1
aF0.98859111700000002
aF1.0472984750000001
aF1.0602433440000001
aa(lp33
I0
aI0
aI0
aI0
aI0
aI0
aI0
aI0
aF1.0000243520000001
aF1.0024806369999999
aF1.0089724120000001
aF1.0692239640000001
aF1.188334783
aF1
aF1.1199544539999999
aF0.95667731
aF1
aF1
aF1.076539234
aF1.034910633
aF1.016370338
aa(lp34
I0
aI0
aI0
aI0
aI0
aI0
aI0
aI0
aI0
aF1.0029960550000001
aF1.0099285309999999
aF1.017880981
aF1.1843391219999999
aF1
aF1.1166935010000001
aF1
aF1
aF1
aF0.83576334299999999
aF1.028994325
aF1.0393729570000001
aa(lp35
I0
aI0
aI0
aI0
aI0
aI0
aI0
aI0
aI0
aI0
aF1.001508227
aF1.006268954
aF1.2434616780000001
aF1
aF1.155145836
aF1.1702175960000001
aF1
aF1
aF1.3392835519999999
aF1.0207616799999999
aF1.013511439
aa(lp36
I0
aI0
aI0
aI0
aI0
aI0
aI0
aI0
aI0
aI0
aI0
aF1.0067671760000001
aF1.1591317219999999
aF1
aF1.1903542730000001
aF1
aF1
aF1
aF1.0879567489999999
aF1.0013700759999999
aF1.002972346
aa(lp37
I0
aI0
aI0
aI0
aI0
aI0
aI0
aI0
aI0
aI0
aI0
aI0
aF1.3052494050000001
aF1
aF1.2192067019999999
aF0.59948419100000006
aF1
aF1
aF1
aF1.001357085
aF1.002553544
aa(lp38
I0
aI0
aI0
aI0
aI0
aI0
aI0
aI0
aI0
aI0
aI0
aI0
aI0
aF1
aF1.1214162009999999
aF1
aF1
aF1
aF1
aF1.342647661
aF1.120233729
aa(lp39
I0
aI0
aI0
aI0
aI0
aI0
aI0
aI0
aI0
aI0
aI0
aI0
aI0
aI0
aF1
aF1.1431742890000001
aF1
aF0.99390722300000001
aF1
aF1
aF1.120233729
aa(lp40
I0
aI0
aI0
aI0
aI0
aI0
aI0
aI0
aI0
aI0
aI0
aI0
aI0
aI0
aI0
aF1
aF1
aF1.1597206229999999
aF1.101731308
aF1.2521514490000001
aF0.87018496000000001
aa(lp41
I0
aI0
aI0
aI0
aI0
aI0
aI0
aI0
aI0
aI0
aI0
aI0
aI0
aI0
aI0
aI0
aF1
aF1.0389934949999999
aF1.014832832
aF1
aF0.55140531800000003
aa(lp42
I0
aI0
aI0
aI0
aI0
aI0
aI0
aI0
aI0
aI0
aI0
aI0
aI0
aI0
aI0
aI0
aI0
aF1
aF1
aF1
aF1
aa(lp43
I0
aI0
aI0
aI0
aI0
aI0
aI0
aI0
aI0
aI0
aI0
aI0
aI0
aI0
aI0
aI0
aI0
aI0
aF1
aF1
aF1
aa(lp44
I0
aI0
aI0
aI0
aI0
aI0
aI0
aI0
aI0
aI0
aI0
aI0
aI0
aI0
aI0
aI0
aI0
aI0
aI0
aF1.0829051089999999
aF1.171714677
aa(lp45
I0
aI0
aI0
aI0
aI0
aI0
aI0
aI0
aI0
aI0
aI0
aI0
aI0
aI0
aI0
aI0
aI0
aI0
aI0
aI0
aF1.0008105199999999
aasS'beta_t'
p46
(lp47
(lp48
I0
aF0.99809882999999999
aF1.0226244900000001
aF0.99633650799999995
aF0.98968030500000004
aF0.99417491000000002
aF0.98031575599999998
aF0.99212752500000001
aF1
aF0.98184479700000005
aF0.97743152899999997
aF0.95747378500000002
aF1
aF1
aF0.98741173199999999
aF1.0633339129999999
aF1
aF0.99095428100000005
aF1.0110900309999999
aF0.94771676900000001
aF0.93777782300000001
aa(lp49
I0
aI0
aF1.0058945290000001
aF1.0076714280000001
aF1.002677329
aF0.99451523399999997
aF0.99286812999999996
aF1
aF1
aF1
aF1
aF1
aF0.94613433700000005
aF0.99719058900000002
aF1
aF1
aF0.69286876500000005
aF0.99906984300000001
aF1.004692366
aF0.95637945000000002
aF0.95793444699999997
aa(lp50
I0
aI0
aI0
aF1.0138711469999999
aF1.0336205380000001
aF1.018171004
aF1.023339824
aF1.027000795
aF1.0191809570000001
aF1
aF1.011806317
aF1.0296907799999999
aF0.94232019499999997
aF1
aF1
aF0.99737220500000001
aF0.76837763000000003
aF0.99651286299999997
aF1.0160345829999999
aF1.0076886199999999
aF1.02002879
aa(lp51
I0
aI0
aI0
aI0
aF0.99619969399999997
aF0.99913055399999995
aF1
aF0.99868894600000002
aF1
aF1
aF1
aF0.98406827200000002
aF0.93296983099999997
aF1
aF1
aF1
aF1
aF1
aF0.99019735399999997
aF1
aF0.970918061
aa(lp52
I0
aI0
aI0
aI0
aI0
aF1.000310289
aF0.99801229800000002
aF0.996484021
aF0.994364425
aF1
aF1
aF1
aF1
aF1
aF1
aF1
aF1
aF1
aF0.99257355599999997
aF1
aF0.98533123300000003
aa(lp53
I0
aI0
aI0
aI0
aI0
aI0
aF1.0000775470000001
aF1
aF1
aF1
aF1
aF1
aF1
aF1
aF1
aF1
aF1
aF1
aF0.98596288600000004
aF1
aF0.99368838599999998
aa(lp54
I0
aI0
aI0
aI0
aI0
aI0
aI0
aF1
aF1
aF1
aF1
aF1
aF1
aF1
aF1
aF1
aF1
aF1
aF0.97455054799999996
aF1
aF1
aa(lp55
I0
aI0
aI0
aI0
aI0
aI0
aI0
aI0
aF1
aF1
aF1
aF1
aF1
aF1
aF1
aF1
aF1
aF1
aF0.96200665100000005
aF1
aF1
aa(lp56
I0
aI0
aI0
aI0
aI0
aI0
aI0
aI0
aI0
aF1
aF1
aF1
aF1
aF1
aF1
aF1
aF1
aF1
aF1
aF1
aF1
aa(lp57
I0
aI0
aI0
aI0
aI0
aI0
aI0
aI0
aI0
aI0
aF1
aF1
aF1
aF1
aF1
aF1
aF1
aF1
aF0.98589111299999999
aF1
aF0.99764101000000005
aa(lp58
I0
aI0
aI0
aI0
aI0
aI0
aI0
aI0
aI0
aI0
aI0
aF1
aF1
aF1
aF1
aF1
aF1
aF1
aF0.98893741700000004
aF1
aF1
aa(lp59
I0
aI0
aI0
aI0
aI0
aI0
aI0
aI0
aI0
aI0
aI0
aI0
aF1
aF1
aF1
aF1
aF1
aF1
aF1
aF1
aF1
aa(lp60
I0
aI0
aI0
aI0
aI0
aI0
aI0
aI0
aI0
aI0
aI0
aI0
aI0
aF1
aF1
aF1
aF1
aF1
aF1
aF1
aF1.0648180890000001
aa(lp61
I0
aI0
aI0
aI0
aI0
aI0
aI0
aI0
aI0
aI0
aI0
aI0
aI0
aI0
aF1
aF1
aF1
aF1.000023103
aF1
aF1
aF1
aa(lp62
I0
aI0
aI0
aI0
aI0
aI0
aI0
aI0
aI0
aI0
aI0
aI0
aI0
aI0
aI0
aF1
aF1
aF1
aF1.0255367360000001
aF1
aF1.049594632
aa(lp63
I0
aI0
aI0
aI0
aI0
aI0
aI0
aI0
aI0
aI0
aI0
aI0
aI0
aI0
aI0
aI0
aF1
aF1
aF1
aF1
aF0.89716226799999998
aa(lp64
I0
aI0
aI0
aI0
aI0
aI0
aI0
aI0
aI0
aI0
aI0
aI0
aI0
aI0
aI0
aI0
aI0
aF1
aF1
aF1
aF1
aa(lp65
I0
aI0
aI0
aI0
aI0
aI0
aI0
aI0
aI0
aI0
aI0
aI0
aI0
aI0
aI0
aI0
aI0
aI0
aF1
aF1
aF1
aa(lp66
I0
aI0
aI0
aI0
aI0
aI0
aI0
aI0
aI0
aI0
aI0
aI0
aI0
aI0
aI0
aI0
aI0
aI0
aI0
aF1
aF0.97309141300000002
aa(lp67
I0
aI0
aI0
aI0
aI0
aI0
aI0
aI0
aI0
aI0
aI0
aI0
aI0
aI0
aI0
aI0
aI0
aI0
aI0
aI0
aF1
aasS'beta_v'
p68
(lp69
(lp70
I0
aF0.99872137699999997
aF0.99951807199999998
aF0.99754786600000001
aF1.0048270699999999
aF0.97910597200000005
aF1.011240388
aF0.94833012000000005
aF1
aF0.95801529399999996
aF0.962050831
aF0.994740603
aF1
aF1
aF0.99734077200000004
aF1.012783169
aF1
aF1.0346302590000001
aF1.0125990869999999
aF1.0028522870000001
aF1.0330862919999999
aa(lp71
I0
aI0
aF0.977794634
aF0.97888016799999999
aF0.97442468100000001
aF0.99608260999999998
aF0.98641582999999999
aF1
aF1
aF1
aF1
aF1
aF0.972532065
aF0.99952176999999998
aF1
aF1
aF0.96950105499999994
aF1.004166412
aF0.91039424899999999
aF1
aF1
aa(lp72
I0
aI0
aI0
aF1.002525718
aF0.99689800399999995
aF1.174760923
aF1.076551882
aF1.0243114980000001
aF1.060793104
aF1
aF1.2054699760000001
aF1.0261693730000001
aF0.90414215899999995
aF1
aF1
aF0.94905595899999995
aF0.84664756100000005
aF1.0083924280000001
aF0.90663056399999997
aF1
aF1.0001511320000001
aa(lp73
I0
aI0
aI0
aI0
aF0.99760727699999996
aF0.99915720500000005
aF1
aF0.99385100900000001
aF1
aF1
aF1
aF1.0074697260000001
aF0.92536717099999999
aF1
aF1
aF1
aF1
aF1
aF1.010817909
aF1
aF0.99567625800000004
aa(lp74
I0
aI0
aI0
aI0
aI0
aF0.99979586799999998
aF0.99924314599999997
aF1.0449194310000001
aF1.040459289
aF1
aF1
aF1
aF1
aF1
aF1
aF1
aF1
aF1
aF0.93681121899999997
aF1
aF0.984104227
aa(lp75
I0
aI0
aI0
aI0
aI0
aI0
aF1.000880464
aF1
aF1
aF1
aF1
aF1
aF1
aF1
aF1
aF1
aF1
aF1
aF0.908113163
aF1
aF0.97695196799999995
aa(lp76
I0
aI0
aI0
aI0
aI0
aI0
aI0
aF1
aF1
aF1
aF1
aF1
aF1
aF1
aF1
aF1
aF1
aF1
aF1.0129944310000001
aF1
aF1
aa(lp77
I0
aI0
aI0
aI0
aI0
aI0
aI0
aI0
aF1
aF1
aF1
aF1
aF1
aF1
aF1
aF1
aF1
aF1
aF0.98461320299999999
aF1
aF1
aa(lp78
I0
aI0
aI0
aI0
aI0
aI0
aI0
aI0
aI0
aF1
aF1
aF1
aF1
aF1
aF1
aF1
aF1
aF1
aF1
aF1
aF1
aa(lp79
I0
aI0
aI0
aI0
aI0
aI0
aI0
aI0
aI0
aI0
aF1
aF1
aF1
aF1
aF1
aF1
aF1
aF1
aF0.75447395799999994
aF1
aF1.0015163709999999
aa(lp80
I0
aI0
aI0
aI0
aI0
aI0
aI0
aI0
aI0
aI0
aI0
aF1
aF1
aF1
aF1
aF1
aF1
aF1
aF0.82896716400000003
aF1
aF1
aa(lp81
I0
aI0
aI0
aI0
aI0
aI0
aI0
aI0
aI0
aI0
aI0
aI0
aF1
aF1
aF1
aF1
aF1
aF1
aF1
aF1
aF1
aa(lp82
I0
aI0
aI0
aI0
aI0
aI0
aI0
aI0
aI0
aI0
aI0
aI0
aI0
aF1
aF1
aF1
aF1
aF1
aF1
aF1
aF1.695358382
aa(lp83
I0
aI0
aI0
aI0
aI0
aI0
aI0
aI0
aI0
aI0
aI0
aI0
aI0
aI0
aF1
aF1
aF1
aF0.99974684700000005
aF1
aF1
aF1
aa(lp84
I0
aI0
aI0
aI0
aI0
aI0
aI0
aI0
aI0
aI0
aI0
aI0
aI0
aI0
aI0
aF1
aF1
aF1
aF0.79566039200000005
aF1
aF1
aa(lp85
I0
aI0
aI0
aI0
aI0
aI0
aI0
aI0
aI0
aI0
aI0
aI0
aI0
aI0
aI0
aI0
aF1
aF1
aF1
aF1
aF1
aa(lp86
I0
aI0
aI0
aI0
aI0
aI0
aI0
aI0
aI0
aI0
aI0
aI0
aI0
aI0
aI0
aI0
aI0
aF1
aF1
aF1
aF1
aa(lp87
I0
aI0
aI0
aI0
aI0
aI0
aI0
aI0
aI0
aI0
aI0
aI0
aI0
aI0
aI0
aI0
aI0
aI0
aF1
aF1
aF1
aa(lp88
I0
aI0
aI0
aI0
aI0
aI0
aI0
aI0
aI0
aI0
aI0
aI0
aI0
aI0
aI0
aI0
aI0
aI0
aI0
aF1
aF0.97518776600000001
aa(lp89
I0
aI0
aI0
aI0
aI0
aI0
aI0
aI0
aI0
aI0
aI0
aI0
aI0
aI0
aI0
aI0
aI0
aI0
aI0
aI0
aF1
aas.