(dp1
S'pkr'
p2
F0.01013501017199926
sS'ars'
p3
F0.12224893656371373
sS'xcd'
p4
F0.37035324579249124
sS'myr'
p5
F0.31505455890512302
sS'aed'
p6
F0.27223968929165898
sS'inr'
p7
F0.016654336970593677
sS'krw'
p8
F0.00097466247457000195
sS'jpy'
p9
F0.0098206029221379696
sS'czk'
p10
F0.04889032735343074
sS'brl'
p11
F0.44867764009617167
sS'pen'
p12
F0.3589791011651563
sS'ang'
p13
F0.56815239504346216
sS'zar'
p14
F0.095154429443314231
sS'sgd'
p15
F0.80552986868873688
sS'ttd'
p16
F0.15720362493064549
sS'try'
p17
F0.47817643795080456
sS'usd'
p18
F1
sS'date'
p19
S' 2014-07-25'
p20
sS'aud'
p21
F1.0167999999999999
sS'chf'
p22
F1.1954
sS'tnd'
p23
F0.62749999999999995
sS'sek'
p24
F0.1585
sS'rub'
p25
F0.03082
sS'xpf'
p26
F0.01217
sS'cny'
p27
F0.17469999999999999
sS'vef'
p28
F0.17169999999999999
sS'gtq'
p29
F0.1368
sS'pab'
p30
F1.0813999999999999
sS'jmd'
p31
F0.009606
sS'hrk'
p32
F0.1903
sS'clp'
p33
F0.0019189999999999999
sS'xaf'
p34
F0.0022139999999999998
sS'eur'
p35
F1.4523999999999999
sS'huf'
p36
F0.0047099999999999998
sS'vnd'
p37
F5.1e-05
sS'nok'
p38
F0.17369999999999999
sS'mxn'
p39
F0.083500000000000005
sS'mad'
p40
F0.12989999999999999
sS'mmk'
p41
F0.0011100000000000001
sS'bsd'
p42
F1.0813999999999999
sS'pln'
p43
F0.35049999999999998
sS'php'
p44
F0.024969999999999999
sS'hkd'
p45
F0.13953099999999999
sS'rsd'
p46
F0.01248
sS'cop'
p47
F0.00058399999999999999
sS'twd'
p48
F0.036089999999999997
sS'ghs'
p49
F0.29549999999999998
sS'lkr'
p50
F0.0083040000000000006
sS'idr'
p51
F9.2999999999999997e-05
sS'hnl'
p52
F0.051740000000000001
sS'fjd'
p53
F0.58860000000000001
sS'isk'
p54
F0.0093980000000000001
sS'thb'
p55
F0.03397
sS'ils'
p56
F0.31559999999999999
sS'gbp'
p57
F1.8352999999999999
sS'nzd'
p58
F0.92420000000000002
sS'ron'
p59
F0.33029999999999998
sS'dkk'
p60
F0.1948
sS'cad'
p61
F1
s.