(dp1
S'SF6'
p2
(dp3
S'1'
(F47.661419623432032
F0.22846577347512986
tp4
sS'0'
(F47.463288701837435
F0.22714729675802081
tp5
sS'3'
(F114.28656317866633
F0.80461394140394693
tp6
sS'2'
(F47.649293941522416
F0.22841456033938831
tp7
ssS'iButene'
p8
(dp9
S'0'
(F122.24407637004461
F0.65245763324658013
tp10
ssS'R142b'
p11
(dp12
S'0'
(F59.377546742701071
F0.30521660825386215
tp13
ssS'CF3I'
p14
(dp15
S'0'
(F18.961754088139557
F0.091806356992769539
tp16
ssS'O2'
p17
(dp18
S'1'
(F41467.423089066353
F272.33945278613669
tp19
sS'0'
(F-1.0881717852492043
F-0.010324251218782398
tp20
sS'2'
(F-1.0911951407134761
F-0.010327517469971429
tp21
ssS'R227ea'
p22
(dp23
S'0'
(F84.715083191233589
F0.45809827496050731
tp24
ssS'RC318'
p25
(dp26
S'0'
(F3.2793787864437083
F0.028723362228150671
tp27
ssS'Propylene'
p28
(dp29
S'1'
(F243.98339034754298
F1.9051948265304324
tp30
sS'0'
(F79.770224721330862
F0.41418455459344888
tp31
ssS'CH4'
p32
(dp33
S'1'
(F681458.14667896449
F-3.7702002013486933
tp34
sS'0'
(F6.1151879290980062
F0.025385922781130076
tp35
sS'3'
(F67.186067125966829
F1.402729122140405
tp36
sS'2'
(F7672.9187591178352
F5.0453917809000268
tp37
sS'4'
(F6.1175751836384276
F0.025400500871654384
tp38
ssS'R32'
p39
(dp40
S'1'
(F-274.73198511109678
F-1.0111858966313969
tp41
sS'0'
(F12.689850657196835
F0.059930984490077804
tp42
sS'3'
(F12.861078343854619
F0.060889383247246444
tp43
sS'2'
(F12.704505731295878
F0.059970667605344467
tp44
ssS'N2O'
p45
(dp46
S'0'
(F19.287103574037832
F0.087976398742600437
tp47
ssS'Cis_2_butene'
p48
(dp49
S'0'
(F113.79765903383202
F0.68176105923844932
tp50
ssS'R245fa'
p51
(dp52
S'0'
(F89.072223400966195
F0.54630005935678805
tp53
ssS'R143a'
p54
(dp55
S'1'
(F-10753373452.898069
F-35761205.950208999
tp56
sS'0'
(F174.56769093796117
F2.1754654483522411
tp57
sS'3'
(F115.73771535658219
F1.032286324226402
tp58
sS'2'
(F115.73245749413798
F1.032285971280428
tp59
ssS'Butene_1'
p60
(dp61
S'0'
(F118.18197359794544
F0.6647551073476069
tp62
ssS'DME'
p63
(dp64
S'0'
(F88.793714089963558
F0.48750146229661234
tp65
ssS'Cyclohexane'
p66
(dp67
S'1'
(F-292.18877110132814
F-0.58930566773438897
tp68
sS'0'
(F-291.90652445120486
F-0.58858038816140479
tp69
ssS'R14'
p70
(dp71
S'0'
(F31.792971887993048
F0.12227542358526372
tp72
ssS'R12'
p73
(dp74
S'1'
(F40.216044046175703
F0.20596458494617967
tp75
sS'0'
(F40.198957346702443
F0.20592437957211793
tp76
ssS'R13'
p77
(dp78
S'1'
(F67.52335344044856
F0.45444833031008719
tp79
sS'0'
(F3696919.902681909
F15858.741611366977
tp80
ssS'R11'
p81
(dp82
S'1'
(F44.177677376275398
F0.23625472710022047
tp83
sS'0'
(F42.936756409705943
F0.23218767961300962
tp84
sS'2'
(F43.769068164048115
F0.23499133558239266
tp85
ssS'R236fa'
p86
(dp87
S'0'
(F4221.3031772736804
F3113.5916650800141
tp88
ssS'Cyclopropane'
p89
(dp90
S'0'
(F-92.498131363532735
F-1.0622407993662069
tp91
ssS'NF3'
p92
(dp93
S'0'
(F-117652.31071058394
F1.1658993918701328
tp94
ssS'He'
p95
(dp96
S'1'
(F0.34109346682902675
F0.00012870290421467624
tp97
sS'0'
(F13.262045946582989
F0.00054621067623150622
tp98
ssS'R141b'
p99
(dp100
S'0'
(F56.989201998313803
F0.29768539415753131
tp101
ssS'R113'
p102
(dp103
S'1'
(F-88.578903847900293
F-0.14927374452666367
tp104
sS'0'
(F-88.412710415213496
F-0.14872539032833662
tp105
ssS'R114'
p106
(dp107
S'0'
(F3.7214596669216951
F0.033844649229945664
tp108
ssS'R115'
p109
(dp110
S'1'
(F96.937972776804486
F0.71658886636010077
tp111
sS'0'
(F76.534747043502975
F0.44837147162907948
tp112
ssS'R116'
p113
(dp114
S'1'
(F392766.87416379864
F1.0674583184712332
tp115
sS'0'
(F71.229952086146042
F0.40564486361819252
tp116
ssS'nC8'
p117
(dp118
S'1'
(F3955.5534345874244
F1.7727733433929049
tp119
sS'0'
(F15706061174.180763
F5928169.6398959113
tp120
sS'3'
(Fnan
Fnan
tp121
sS'2'
(F-130.97110308121017
F0.6241283549089941
tp122
ssS'nC9'
p123
(dp124
S'0'
(F-327.21942404918337
F-0.73524999505006383
tp125
ssS'H2'
p126
(dp127
S'1'
(F31440041.429885294
F-12107.153735474161
tp128
sS'0'
(F599.38841069835757
F3.0915468513036828
tp129
sS'3'
(F599.56729764501449
F3.0892754732613148
tp130
sS'2'
(F599.35456383003918
F3.0915597146387981
tp131
ssS'nC4'
p132
(dp133
S'1'
(F-215151865.7302388
F-716804.93027402728
tp134
sS'0'
(F147.22195127128515
F0.83239574057942389
tp135
sS'3'
(F147.40363427874027
F0.83422497619261249
tp136
sS'2'
(F5383.6427595138903
F2.0164183329226324
tp137
sS'5'
(F103.92350635279384
F0.59858319236968494
tp138
sS'4'
(F23137507402.507801
F7975153.7694468861
tp139
ssS'R365mfc'
p140
(dp141
S'0'
(F94.747760662004694
F0.47879348284808981
tp142
ssS'nC6'
p143
(dp144
S'1'
(F4606.980992722486
F1.5211727766989638
tp145
sS'0'
(F21088446189.259163
F7392143.9489962095
tp146
sS'3'
(Fnan
Fnan
tp147
sS'2'
(F-147.54328405413975
F0.41108299849695612
tp148
ssS'nC7'
p149
(dp150
S'1'
(F4273.7179871663038
F1.6606961636017081
tp151
sS'0'
(F18262730290.989365
F6635385.3282270357
tp152
sS'3'
(Fnan
Fnan
tp153
sS'2'
(F-120.62329159063768
F0.67179607094185534
tp154
ssS'R407C'
p155
(dp156
S'0'
(F-42.064355710372226
F0.9462803432989545
tp157
ssS'Ethylene'
p158
(dp159
S'1'
(F-74709.540697781282
F-0.83688114456722651
tp160
sS'0'
(F19.823473011905989
F0.083696197519860932
tp161
sS'3'
(F19.844984170151168
F0.083765729520777168
tp162
sS'2'
(F19.828223513922662
F0.083711106608118091
tp163
ssS'COS'
p164
(dp165
S'0'
(F19.39186101573338
F0.091638523875511441
tp166
ssS'nC12'
p167
(dp168
S'0'
(F-327.56668666977316
F-0.65142818040316997
tp169
ssS'nC10'
p170
(dp171
S'0'
(F-324.92233974588976
F-0.6919044539064545
tp172
ssS'R218'
p173
(dp174
S'0'
(F86.750610587374652
F0.47263389675226702
tp175
ssS'Ne'
p176
(dp177
S'0'
(F0.031476639995518599
F-9.2393901731749838e-05
tp178
ssS'Propyne'
p179
(dp180
S'0'
(F183.76312890006281
F1.2935585112407058
tp181
ssS'Methanol'
p182
(dp183
S'1'
(F-1136.1489922918906
F-3.215896056792805
tp184
sS'0'
(F-1137.5162514159035
F-3.2168819203486554
tp185
ssS'iC6'
p186
(dp187
S'0'
(F-181.80617636065313
F-0.13678262314626305
tp188
ssS'iC5'
p189
(dp190
S'1'
(F5412.2560776748451
F1.5002419018787274
tp191
sS'0'
(F-205.47127290249111
F-0.42451576708286071
tp192
sS'3'
(Fnan
Fnan
tp193
sS'2'
(F-179.04142814380185
F-0.0889615587450754
tp194
ssS'iC4'
p195
(dp196
S'1'
(F-672604.12059035443
F-0.71189869124606364
tp197
sS'0'
(F132.09083574303236
F0.70026540323990338
tp198
sS'3'
(F132.05673979662143
F0.7001374940574111
tp199
sS'2'
(F5333.8978263720846
F1.9596777737114854
tp200
sS'5'
(F182.88415242541095
F1.2357235287318984
tp201
sS'4'
(F23342358570.890587
F8021173.6395919146
tp202
ssS'D2O'
p203
(dp204
S'0'
(F-2330.609347774508
F-6.0676260963810069
tp205
ssS'C3'
p206
(dp207
S'1'
(F-285034.8889570735
F-14.529120764521476
tp208
sS'0'
(F106.01284219566385
F0.55720717813416332
tp209
sS'3'
(F5661.4121349130664
F4.5977034263836192
tp210
sS'2'
(F105.43634586841843
F0.55284696410833634
tp211
sS'5'
(F33404269030.285313
F3675136.9260922452
tp212
sS'4'
(F105.44791938132443
F0.55312418058444335
tp213
ssS'C2'
p214
(dp215
S'1'
(F167465.68351225476
F-1.3808407082654999
tp216
sS'0'
(F63.35475458280208
F0.31601143500157386
tp217
sS'3'
(F2353.6375467812077
F-1.3240151806222373
tp218
sS'2'
(F6204.7311056298822
F4.5911179787270724
tp219
sS'4'
(F6272729464.477788
F4332744.2101667756
tp220
ssS'R410A'
p221
(dp222
S'0'
(F-41.681749556747747
F4.8907047831739465
tp223
ssS'Acetone'
p224
(dp225
S'0'
(F-437.31299963389068
F-1.0531262180929881
tp226
ssS'Toluene'
p227
(dp228
S'1'
(F-326.21339761017333
F-0.62441895616655152
tp229
sS'0'
(F-326.44744705340958
F-0.62448129825470411
tp230
ssS'CO'
p231
(dp232
S'1'
(F4175.4340901288069
F-0.018683525583566722
tp233
sS'0'
(F-0.19960541462302353
F-0.00046185508700884084
tp234
sS'2'
(Fnan
Fnan
tp235
ssS'R134a'
p236
(dp237
S'1'
(F-30.973898778012682
F2.90155095972142
tp238
sS'0'
(F163.96602059307781
F1.528817655517511
tp239
sS'3'
(F164.00416814999318
F1.5289256127974016
tp240
sS'2'
(F163.9410794221389
F1.5287173066578301
tp241
ssS'R404A'
p242
(dp243
S'0'
(F2.0031907959220923
F1.3917145751332256
tp244
ssS'R507A'
p245
(dp246
S'0'
(F5.5706993294576588
F1.634606675309628
tp247
ssS'Kr'
p248
(dp249
S'1'
(F-0.20572837982970826
F-0.00047711844178487323
tp250
sS'0'
(F-0.20338807022202154
F-0.00047645480953285461
tp251
ssS'N2'
p252
(dp253
S'1'
(F1.4622896955814593
F-0.0046597794847421459
tp254
sS'0'
(F-0.16163956993449022
F-0.00032304357288010015
tp255
sS'3'
(F177.25049126956907
F-0.00070563813441325448
tp256
sS'2'
(F521.58706537276601
F0.24316185854703654
tp257
sS'4'
(F-0.16832098144276142
F-0.00034323874808739725
tp258
ssS'Trans_2_butene'
p259
(dp260
S'0'
(F130.53235186908699
F0.72960049666559645
tp261
ssS'Benzene'
p262
(dp263
S'0'
(F-190.85048270556496
F0.44889448926568892
tp264
ssS'F2'
p265
(dp266
S'1'
(F5.7295969896470211
F0.038178149835625265
tp267
sS'0'
(F3.7851330736389959
F0.015858639811381952
tp268
ssS'CO2'
p269
(dp270
S'1'
(F-82.94183148652499
F-0.26731202636069284
tp271
sS'0'
(F14.766993997358174
F0.066234004494631751
tp272
sS'3'
(F14.72377725438964
F0.066021577494867978
tp273
sS'2'
(F728.0438495411629
F0.7372963993424908
tp274
sS'4'
(F14.776980544413124
F0.066267968015262191
tp275
ssS'H2S'
p276
(dp277
S'1'
(F1988.7991091785436
F0.0016736547203488107
tp278
sS'0'
(F-0.41777086417809478
F0.0015515085033950579
tp279
sS'3'
(F2784749672.1312943
F1307417.3726903566
tp280
sS'2'
(F-5.7609378554135322
F-0.05443252184430953
tp281
ssS'Xe'
p282
(dp283
S'1'
(F-67.163527189926967
F-0.22435205413130357
tp284
sS'0'
(F-0.29425242838302756
F-0.00065267925170343704
tp285
ssS'H2O'
p286
(dp287
S'1'
(F1633.2034808390877
F-5.2843709849419689
tp288
sS'0'
(F-2442.2732752262614
F-6.5914570290722025
tp289
sS'2'
(F4978.0776983907199
F1.7408985723732369
tp290
ssS'R41'
p291
(dp292
S'1'
(F92644.782060298283
F309.32596520120018
tp293
sS'0'
(F5.0956918769324577
F0.028220996252855509
tp294
sS'2'
(F5.1519510856679123
F0.028382052235830426
tp295
ssS'pH2'
p296
(dp297
S'1'
(F1129.0043478298962
F6.3993428972493565
tp298
sS'0'
(F1097.9596937455137
F6.4077919907855385
tp299
ssS'R123'
p300
(dp301
S'1'
(F91.158019891964798
F0.66094213330441598
tp302
sS'0'
(F-4540.0282654472039
F-14.680997593178919
tp303
sS'2'
(F90.886787814779325
F0.66005800100226852
tp304
ssS'R125'
p305
(dp306
S'1'
(F1015.7221915487995
F6.0343057491433081
tp307
sS'0'
(F153.14641296794082
F4.024026257894274
tp308
sS'3'
(F71.117002249705934
F0.48604404825063635
tp309
sS'2'
(F39.709978751126606
F0.18915619467146133
tp310
sS'5'
(F-123.46304184229504
F1.6142086158752471
tp311
sS'4'
(F88.830196107791068
F0.61685121057815562
tp312
ssS'R124'
p313
(dp314
S'1'
(F-4504.3155969779418
F-14.630814114452614
tp315
sS'0'
(F84.1009724558985
F0.59575376999214247
tp316
ssS'nC5'
p317
(dp318
S'1'
(F4702.9316664242569
F1.4096758709444379
tp319
sS'0'
(F20027580497.407463
F7261745.3130253199
tp320
sS'3'
(Fnan
Fnan
tp321
sS'2'
(F-351.57998749838998
F-1.3010115367627946
tp322
ssS'R152a'
p323
(dp324
S'1'
(F681.81465934834068
F4.3271411778449274
tp325
sS'0'
(F166.19269138183091
F2.5972017561664815
tp326
sS'3'
(F207.20789552049382
F3.1978003199306642
tp327
sS'2'
(F207.34289839866989
F3.1982393937035685
tp328
sS'4'
(F683.62579807243696
F4.3320427381684068
tp329
ssS'neoC5'
p330
(dp331
S'1'
(F343.70588383375372
F2.4505076329989532
tp332
sS'0'
(F123.94577070273309
F0.58566605480359457
tp333
ssS'Ethanol'
p334
(dp335
S'0'
(F-884.10673573621023
F-2.461544081158626
tp336
ssS'oH2'
p337
(dp338
S'0'
(F433.01599181662766
F1.9865083763333793
tp339
ssS'SO2'
p340
(dp341
S'1'
(F32.010155541470922
F0.233063520335164
tp342
sS'0'
(F7.3023723644250209
F0.039249808609306408
tp343
ssS'NH3'
p344
(dp345
S'1'
(F20755.775674633995
F-0.77794964132799893
tp346
sS'0'
(F703.06844393687163
F-3.5941388553384921
tp347
sS'2'
(F690.63298095843879
F-3.6306550545390004
tp348
ssS'Air'
p349
(dp350
S'1'
(F12.513503447361487
F-0.00040265930906938286
tp351
sS'0'
(F-0.10800588436059892
F-8.2001221960897189e-05
tp352
ssS'D2'
p353
(dp354
S'0'
(F573.31614825569909
F4.2890406958205549
tp355
ssS'Ar'
p356
(dp357
S'1'
(F-4.609451635720232
F-0.020974498709231817
tp358
sS'0'
(F-0.19332308413708796
F-0.00051622627636546833
tp359
sS'3'
(F-0.18996023497257039
F-0.00050674059483145318
tp360
sS'2'
(F-0.19636653179013774
F-0.00052341795673679925
tp361
sS'4'
(F-0.19608292244481226
F-0.00052246610426752167
tp362
ssS'R23'
p363
(dp364
S'1'
(F22.597028196341899
F0.10408201464373366
tp365
sS'0'
(F22.632632360620747
F0.10419107097370829
tp366
sS'2'
(F21.846384736974933
F0.076780117543159249
tp367
ssS'R22'
p368
(dp369
S'1'
(F27.088130876103385
F0.13240075065165774
tp370
sS'0'
(F27.326881967640222
F0.13467579380951977
tp371
sS'2'
(F27.113973250764023
F0.13247070358859711
tp372
ssS'R21'
p373
(dp374
S'0'
(F52.680952690773431
F0.36853422324461554
tp375
ss.